ccopy_reg
_reconstructor
p0
(cstrictdoc.core.file_dependency_manager
FileDependencyManager
p1
c__builtin__
object
p2
Ntp3
Rp4
(dp5
Vpath_to_cache_dir
p6
V/tun/projects/sportball_utils/sportball_photography/output/_cache/0.13.0
p7
sVpath_to_cache
p8
V/tun/projects/sportball_utils/sportball_photography/output/_cache/0.13.0/dependencies
p9
sVdependencies_now
p10
(dp11
V/tun/projects/sportball_utils/sportball_photography/REQUIREMENTS_UNIFIED_EXTRACTION.sdoc
p12
c__builtin__
set
p13
((lp14
V/tun/projects/sportball_utils/sportball_photography/output/html/sportball_photography/REQUIREMENTS_UNIFIED_EXTRACTION.html
p15
atp16
Rp17
ssVdependencies_prev
p18
(dp19
g12
g13
((lp20
g15
atp21
Rp22
ssVdependencies_must_renegerate
p23
g13
((lp24
g15
atp25
Rp26
sb.